; ModuleID = 'bench/linux/original/xt_mark.ll'
source_filename = "bench/linux/original/xt_mark.ll"
target datalayout = "e-m:e-p270:32:32-p271:32:32-p272:64:64-i64:64-i128:128-f80:128-n8:16:32:64-S128"
target triple = "x86_64-unknown-linux-gnu"

%struct.xt_target = type { %struct.list_head, [29 x i8], i8, ptr, ptr, ptr, ptr, ptr, i32, i32, i32, i16, i16 }
%struct.list_head = type { ptr, ptr }
%struct.xt_match = type { %struct.list_head, [29 x i8], i8, ptr, ptr, ptr, ptr, ptr, i32, i32, i32, i16, i16 }
%struct.module = type { i32, %struct.list_head, [56 x i8], %struct.module_kobject, ptr, ptr, ptr, ptr, ptr, ptr, i32, %struct.mutex, ptr, i32, i32, ptr, ptr, i8, i8, i32, ptr, ptr, [7 x %struct.module_memory], %struct.mod_arch_specific, i64, i32, %struct.list_head, ptr, ptr, %struct.mod_kallsyms, ptr, ptr, ptr, ptr, i32, ptr, i32, i32, ptr, i32, ptr, ptr, i32, i32, ptr, ptr, i32, ptr, i32, ptr, i32, ptr, i32, i32, ptr, %struct.list_head, %struct.list_head, ptr, %struct.atomic_t }
%struct.module_kobject = type { %struct.kobject, ptr, ptr, ptr, ptr }
%struct.kobject = type { ptr, %struct.list_head, ptr, ptr, ptr, ptr, %struct.kref, i8 }
%struct.kref = type { %struct.refcount_struct }
%struct.refcount_struct = type { %struct.atomic_t }
%struct.mutex = type { %struct.atomic64_t, %struct.raw_spinlock, %struct.optimistic_spin_queue, %struct.list_head }
%struct.atomic64_t = type { i64 }
%struct.raw_spinlock = type { %struct.qspinlock }
%struct.qspinlock = type { %union.anon }
%union.anon = type { %struct.atomic_t }
%struct.optimistic_spin_queue = type { %struct.atomic_t }
%struct.module_memory = type { ptr, i32, %struct.mod_tree_node }
%struct.mod_tree_node = type { ptr, %struct.latch_tree_node }
%struct.latch_tree_node = type { [2 x %struct.rb_node] }
%struct.rb_node = type { i64, ptr, ptr }
%struct.mod_arch_specific = type { i32, ptr, ptr }
%struct.mod_kallsyms = type { ptr, i32, ptr, ptr }
%struct.atomic_t = type { i32 }

@__UNIQUE_ID_license489 = internal constant [12 x i8] c"license=GPL\00", section ".modinfo", align 1
@__UNIQUE_ID_author490 = internal constant [35 x i8] c"author=Marc Boucher <marc@mbsi.ca>\00", section ".modinfo", align 1
@__UNIQUE_ID_description491 = internal constant [44 x i8] c"description=Xtables: packet mark operations\00", section ".modinfo", align 1
@__UNIQUE_ID_alias492 = internal constant [15 x i8] c"alias=ipt_mark\00", section ".modinfo", align 1
@__UNIQUE_ID_alias493 = internal constant [16 x i8] c"alias=ip6t_mark\00", section ".modinfo", align 1
@__UNIQUE_ID_alias494 = internal constant [15 x i8] c"alias=ipt_MARK\00", section ".modinfo", align 1
@__UNIQUE_ID_alias495 = internal constant [16 x i8] c"alias=ip6t_MARK\00", section ".modinfo", align 1
@__UNIQUE_ID_alias496 = internal constant [16 x i8] c"alias=arpt_MARK\00", section ".modinfo", align 1
@__UNIQUE_ID___addressable_init_module497 = internal global ptr @init_module, section ".init.data", align 8
@__UNIQUE_ID___addressable_cleanup_module498 = internal global ptr @cleanup_module, section ".exit.data", align 8
@mark_tg_reg = internal global %struct.xt_target { %struct.list_head zeroinitializer, [29 x i8] c"MARK\00\00\00\00\00\00\00\00\00\00\00\00\00\00\00\00\00\00\00\00\00\00\00\00\00", i8 2, ptr @mark_tg, ptr null, ptr null, ptr @__this_module, ptr null, i32 8, i32 0, i32 0, i16 0, i16 0 }, section ".data..read_mostly", align 8
@mark_mt_reg = internal global %struct.xt_match { %struct.list_head zeroinitializer, [29 x i8] c"mark\00\00\00\00\00\00\00\00\00\00\00\00\00\00\00\00\00\00\00\00\00\00\00\00\00", i8 1, ptr @mark_mt, ptr null, ptr null, ptr @__this_module, ptr null, i32 12, i32 0, i32 0, i16 0, i16 0 }, section ".data..read_mostly", align 8
@__this_module = external dso_local global %struct.module, align 64
@llvm.compiler.used = appending global [10 x ptr] [ptr @__UNIQUE_ID___addressable_cleanup_module498, ptr @__UNIQUE_ID___addressable_init_module497, ptr @__UNIQUE_ID_alias492, ptr @__UNIQUE_ID_alias493, ptr @__UNIQUE_ID_alias494, ptr @__UNIQUE_ID_alias495, ptr @__UNIQUE_ID_alias496, ptr @__UNIQUE_ID_author490, ptr @__UNIQUE_ID_description491, ptr @__UNIQUE_ID_license489], section "llvm.metadata"

; Function Attrs: cold fn_ret_thunk_extern nounwind null_pointer_is_valid optsize
define dso_local i32 @init_module() #0 section ".init.text" align 16 {
  %1 = tail call i32 @xt_register_target(ptr noundef nonnull @mark_tg_reg) #4
  %2 = icmp slt i32 %1, 0
  br i1 %2, label %7, label %3

3:                                                ; preds = %0
  %4 = tail call i32 @xt_register_match(ptr noundef nonnull @mark_mt_reg) #4
  %5 = icmp slt i32 %4, 0
  br i1 %5, label %6, label %7

6:                                                ; preds = %3
  tail call void @xt_unregister_target(ptr noundef nonnull @mark_tg_reg) #4
  br label %7

7:                                                ; preds = %6, %3, %0
  %8 = phi i32 [ %4, %6 ], [ %1, %0 ], [ 0, %3 ]
  ret i32 %8
}

; Function Attrs: cold fn_ret_thunk_extern nounwind null_pointer_is_valid optsize
define dso_local void @cleanup_module() #0 section ".exit.text" align 16 {
  tail call void @xt_unregister_match(ptr noundef nonnull @mark_mt_reg) #4
  tail call void @xt_unregister_target(ptr noundef nonnull @mark_tg_reg) #4
  ret void
}

; Function Attrs: null_pointer_is_valid
declare dso_local i32 @xt_register_target(ptr noundef) local_unnamed_addr #1

; Function Attrs: null_pointer_is_valid
declare dso_local i32 @xt_register_match(ptr noundef) local_unnamed_addr #1

; Function Attrs: null_pointer_is_valid
declare dso_local void @xt_unregister_target(ptr noundef) local_unnamed_addr #1

; Function Attrs: fn_ret_thunk_extern mustprogress nofree norecurse nosync nounwind null_pointer_is_valid willreturn memory(read, argmem: readwrite, inaccessiblemem: none)
define internal noundef i32 @mark_tg(ptr nocapture noundef %0, ptr nocapture noundef readonly %1) #2 align 16 {
  %3 = getelementptr inbounds i8, ptr %1, i64 8
  %4 = load ptr, ptr %3, align 8
  %5 = getelementptr inbounds i8, ptr %0, i64 164
  %6 = load i32, ptr %5, align 4
  %7 = getelementptr inbounds i8, ptr %4, i64 4
  %8 = load i32, ptr %7, align 4
  %9 = xor i32 %8, -1
  %10 = and i32 %6, %9
  %11 = load i32, ptr %4, align 4
  %12 = xor i32 %10, %11
  store i32 %12, ptr %5, align 4
  ret i32 -1
}

; Function Attrs: fn_ret_thunk_extern mustprogress nofree norecurse nosync nounwind null_pointer_is_valid willreturn memory(read, inaccessiblemem: none)
define internal zeroext i1 @mark_mt(ptr nocapture noundef readonly %0, ptr nocapture noundef readonly %1) #3 align 16 {
  %3 = getelementptr inbounds i8, ptr %1, i64 8
  %4 = load ptr, ptr %3, align 8
  %5 = getelementptr inbounds i8, ptr %0, i64 164
  %6 = load i32, ptr %5, align 4
  %7 = getelementptr inbounds i8, ptr %4, i64 4
  %8 = load i32, ptr %7, align 4
  %9 = and i32 %8, %6
  %10 = load i32, ptr %4, align 4
  %11 = icmp eq i32 %9, %10
  %12 = getelementptr inbounds i8, ptr %4, i64 8
  %13 = load i8, ptr %12, align 4
  %14 = zext i1 %11 to i8
  %15 = icmp ne i8 %13, %14
  ret i1 %15
}

; Function Attrs: null_pointer_is_valid
declare dso_local void @xt_unregister_match(ptr noundef) local_unnamed_addr #1


!llvm.module.flags = !{!0, !1, !2, !3, !4}

!0 = !{i32 1, !"wchar_size", i32 2}
!1 = !{i32 8, !"cf-protection-branch", i32 1}
!2 = !{i32 4, !"function_return_thunk_extern", i32 1}
!3 = !{i32 4, !"indirect_branch_cs_prefix", i32 1}
!4 = !{i32 4, !"SkipRaxSetup", i32 1}
